target datalayout = "e-m:e-p270:32:32-p271:32:32-p272:64:64-i64:64-i128:128-f80:128-n8:16:32:64-S128"
target triple = "x86_64-pc-linux-gnu"

%struct._urb_info_t = type { i16, i16, i8, i32, i8, i32, i8, i8, i8, i32, ptr, ptr }
%struct._packet_info = type { ptr, ptr, i32, i32, %struct.nstime_t, %struct.nstime_t, %struct.nstime_t, i8, ptr, ptr, ptr, ptr, %struct._address, %struct._address, %struct._address, %struct._address, %struct._address, %struct._address, i32, ptr, i8, [3 x i8], %struct.anon, i32, i32, i32, i32, ptr, i8, ptr, ptr, i16, i16, i32, i32, i16, i32, i32, ptr, ptr, ptr, i8, i8, i16, i16, i16, i32, i16, i16, ptr, ptr, ptr, ptr, ptr, i32, i32 }
%struct.nstime_t = type { i64, i32 }
%struct._address = type { i32, i32, ptr, ptr }
%struct.anon = type { i8, [3 x i8] }
%struct._usb_conv_info_t = type { i8, i16, i16, i16, i16, i8, i16, i32, i16, i8, ptr, ptr, i32, ptr }
%struct._frame_data = type <{ i32, i32, i32, i32, i32, [4 x i8], i64, ptr, ptr, ptr, i8, i16, [5 x i8], %struct.nstime_t, %struct.nstime_t, i32, i32 }>
%struct._audio_conv_info_t = type { [256 x i32] }

@hf_ac_if_clksrc_id = internal global i32 0, align 4
@hf_ac_if_clksrc_attr = internal global i32 0, align 4
@hf_ac_if_clksrc_controls = internal global i32 0, align 4
@hf_ac_if_clksrc_assocterminal = internal global i32 0, align 4
@hf_ac_if_clksrc_clocksource = internal global i32 0, align 4
@ett_ac_if_clksrc_attr = internal global i32 0, align 4
@ett_ac_if_clksrc_controls = internal global i32 0, align 4
@dissect_ac_if_clock_source.cs_attributes = internal constant [4 x ptr] [ptr @hf_ac_if_clksrc_attr_type, ptr @hf_ac_if_clksrc_attr_d2, ptr @hf_ac_if_clksrc_attr_rsv, ptr null], align 16
@dissect_ac_if_clock_source.cs_controls = internal constant [4 x ptr] [ptr @hf_ac_if_clksrc_controls_freq, ptr @hf_ac_if_clksrc_controls_validity, ptr @hf_ac_if_clksrc_controls_rsv, ptr null], align 16

; Function Attrs: null_pointer_is_valid sspstrong uwtable
define internal ptr @allocate_audio_conv_info() #1 {
  %1 = alloca ptr, align 8
  %2 = alloca i32, align 4
  call void @llvm.lifetime.start.p0(i64 8, ptr %1) #11
  %3 = call ptr @wmem_file_scope()
  %4 = call noalias ptr @wmem_alloc(ptr noundef %3, i64 noundef 1024) #12
  store ptr %4, ptr %1, align 8
  %5 = load ptr, ptr %1, align 8
  %6 = getelementptr inbounds nuw %struct._audio_conv_info_t, ptr %5, i32 0, i32 0
  %7 = getelementptr [256 x i32], ptr %6, i64 0, i64 0
  store i32 1, ptr %7, align 4
  call void @llvm.lifetime.start.p0(i64 4, ptr %2) #11
  store i32 1, ptr %2, align 4
  br label %8

8:                                                ; preds = %18, %0
  %9 = load i32, ptr %2, align 4
  %10 = icmp slt i32 %9, 256
  br i1 %10, label %12, label %11

11:                                               ; preds = %8
  call void @llvm.lifetime.end.p0(i64 4, ptr %2) #11
  br label %21

12:                                               ; preds = %8
  %13 = load ptr, ptr %1, align 8
  %14 = getelementptr inbounds nuw %struct._audio_conv_info_t, ptr %13, i32 0, i32 0
  %15 = load i32, ptr %2, align 4
  %16 = sext i32 %15 to i64
  %17 = getelementptr [256 x i32], ptr %14, i64 0, i64 %16
  store i32 0, ptr %17, align 4
  br label %18

18:                                               ; preds = %12
  %19 = load i32, ptr %2, align 4
  %20 = add i32 %19, 1
  store i32 %20, ptr %2, align 4
  br label %8, !llvm.loop !20

21:                                               ; preds = %11
  %22 = load ptr, ptr %1, align 8
  call void @llvm.lifetime.end.p0(i64 8, ptr %1) #11
  ret ptr %22
}

; Function Attrs: null_pointer_is_valid sspstrong uwtable
define internal void @set_entity_type(ptr noundef %0, i8 noundef zeroext %1, i32 noundef %2) #1 {
  %4 = alloca ptr, align 8
  %5 = alloca i8, align 1
  %6 = alloca i32, align 4
  %7 = alloca ptr, align 8
  %8 = alloca i32, align 4
  store ptr %0, ptr %4, align 8
  store i8 %1, ptr %5, align 1
  store i32 %2, ptr %6, align 4
  call void @llvm.lifetime.start.p0(i64 8, ptr %7) #11
  %9 = load ptr, ptr %4, align 8
  %10 = getelementptr inbounds nuw %struct._urb_info_t, ptr %9, i32 0, i32 11
  %11 = load ptr, ptr %10, align 8
  %12 = getelementptr inbounds nuw %struct._usb_conv_info_t, ptr %11, i32 0, i32 11
  %13 = load ptr, ptr %12, align 8
  store ptr %13, ptr %7, align 8
  %14 = load ptr, ptr %7, align 8
  %15 = icmp ne ptr %14, null
  br i1 %15, label %27, label %16

16:                                               ; preds = %3
  %17 = call ptr @allocate_audio_conv_info()
  store ptr %17, ptr %7, align 8
  %18 = load ptr, ptr %7, align 8
  %19 = load ptr, ptr %4, align 8
  %20 = getelementptr inbounds nuw %struct._urb_info_t, ptr %19, i32 0, i32 11
  %21 = load ptr, ptr %20, align 8
  %22 = getelementptr inbounds nuw %struct._usb_conv_info_t, ptr %21, i32 0, i32 11
  store ptr %18, ptr %22, align 8
  %23 = load ptr, ptr %4, align 8
  %24 = getelementptr inbounds nuw %struct._urb_info_t, ptr %23, i32 0, i32 11
  %25 = load ptr, ptr %24, align 8
  %26 = getelementptr inbounds nuw %struct._usb_conv_info_t, ptr %25, i32 0, i32 12
  store i32 2, ptr %26, align 8
  br label %36

27:                                               ; preds = %3
  %28 = load ptr, ptr %4, align 8
  %29 = getelementptr inbounds nuw %struct._urb_info_t, ptr %28, i32 0, i32 11
  %30 = load ptr, ptr %29, align 8
  %31 = getelementptr inbounds nuw %struct._usb_conv_info_t, ptr %30, i32 0, i32 12
  %32 = load i32, ptr %31, align 8
  %33 = icmp ne i32 %32, 2
  br i1 %33, label %34, label %35

34:                                               ; preds = %27
  store i32 1, ptr %8, align 4
  br label %48

35:                                               ; preds = %27
  br label %36

36:                                               ; preds = %35, %16
  %37 = load i8, ptr %5, align 1
  %38 = zext i8 %37 to i32
  %39 = icmp ne i32 %38, 0
  br i1 %39, label %40, label %47

40:                                               ; preds = %36
  %41 = load i32, ptr %6, align 4
  %42 = load ptr, ptr %7, align 8
  %43 = getelementptr inbounds nuw %struct._audio_conv_info_t, ptr %42, i32 0, i32 0
  %44 = load i8, ptr %5, align 1
  %45 = zext i8 %44 to i64
  %46 = getelementptr [256 x i32], ptr %43, i64 0, i64 %45
  store i32 %41, ptr %46, align 4
  br label %47

47:                                               ; preds = %40, %36
  store i32 0, ptr %8, align 4
  br label %48

48:                                               ; preds = %47, %34
  call void @llvm.lifetime.end.p0(i64 8, ptr %7) #11
  %49 = load i32, ptr %8, align 4
  switch i32 %49, label %51 [
    i32 0, label %50
    i32 1, label %50
  ]

50:                                               ; preds = %48, %48
  ret void

51:                                               ; preds = %48
  unreachable
}

; Function Attrs: null_pointer_is_valid sspstrong uwtable
define internal i32 @dissect_ac_if_clock_source(ptr noundef %0, i32 noundef %1, ptr noundef %2, ptr noundef %3, ptr noundef %4) #1 {
  %6 = alloca ptr, align 8
  %7 = alloca i32, align 4
  %8 = alloca ptr, align 8
  %9 = alloca ptr, align 8
  %10 = alloca ptr, align 8
  %11 = alloca i32, align 4
  store ptr %0, ptr %6, align 8
  store i32 %1, ptr %7, align 4
  store ptr %2, ptr %8, align 8
  store ptr %3, ptr %9, align 8
  store ptr %4, ptr %10, align 8
  call void @llvm.lifetime.start.p0(i64 4, ptr %11) #11
  %12 = load i32, ptr %7, align 4
  store i32 %12, ptr %11, align 4
  %13 = load ptr, ptr %8, align 8
  %14 = getelementptr inbounds nuw %struct._packet_info, ptr %13, i32 0, i32 8
  %15 = load ptr, ptr %14, align 8
  %16 = getelementptr inbounds nuw %struct._frame_data, ptr %15, i32 0, i32 11
  %17 = load i16, ptr %16, align 1
  %18 = lshr i16 %17, 3
  %19 = and i16 %18, 1
  %20 = zext i16 %19 to i32
  %21 = icmp ne i32 %20, 0
  br i1 %21, label %27, label %22

22:                                               ; preds = %5
  %23 = load ptr, ptr %10, align 8
  %24 = load ptr, ptr %6, align 8
  %25 = load i32, ptr %7, align 4
  %26 = call zeroext i8 @tvb_get_uint8(ptr noundef %24, i32 noundef %25)
  call void @set_entity_type(ptr noundef %23, i8 noundef zeroext %26, i32 noundef 2)
  br label %27

27:                                               ; preds = %22, %5
  %28 = load ptr, ptr %9, align 8
  %29 = load i32, ptr @hf_ac_if_clksrc_id, align 4
  %30 = load ptr, ptr %6, align 8
  %31 = load i32, ptr %7, align 4
  %32 = call ptr @proto_tree_add_item(ptr noundef %28, i32 noundef %29, ptr noundef %30, i32 noundef %31, i32 noundef 1, i32 noundef -2147483648)
  %33 = load i32, ptr %7, align 4
  %34 = add i32 %33, 1
  store i32 %34, ptr %7, align 4
  %35 = load ptr, ptr %9, align 8
  %36 = load ptr, ptr %6, align 8
  %37 = load i32, ptr %7, align 4
  %38 = load i32, ptr @hf_ac_if_clksrc_attr, align 4
  %39 = load i32, ptr @ett_ac_if_clksrc_attr, align 4
  %40 = call ptr @proto_tree_add_bitmask(ptr noundef %35, ptr noundef %36, i32 noundef %37, i32 noundef %38, i32 noundef %39, ptr noundef @dissect_ac_if_clock_source.cs_attributes, i32 noundef -2147483648)
  %41 = load i32, ptr %7, align 4
  %42 = add i32 %41, 1
  store i32 %42, ptr %7, align 4
  %43 = load ptr, ptr %9, align 8
  %44 = load ptr, ptr %6, align 8
  %45 = load i32, ptr %7, align 4
  %46 = load i32, ptr @hf_ac_if_clksrc_controls, align 4
  %47 = load i32, ptr @ett_ac_if_clksrc_controls, align 4
  %48 = call ptr @proto_tree_add_bitmask(ptr noundef %43, ptr noundef %44, i32 noundef %45, i32 noundef %46, i32 noundef %47, ptr noundef @dissect_ac_if_clock_source.cs_controls, i32 noundef -2147483648)
  %49 = load i32, ptr %7, align 4
  %50 = add i32 %49, 1
  store i32 %50, ptr %7, align 4
  %51 = load ptr, ptr %9, align 8
  %52 = load i32, ptr @hf_ac_if_clksrc_assocterminal, align 4
  %53 = load ptr, ptr %6, align 8
  %54 = load i32, ptr %7, align 4
  %55 = call ptr @proto_tree_add_item(ptr noundef %51, i32 noundef %52, ptr noundef %53, i32 noundef %54, i32 noundef 1, i32 noundef -2147483648)
  %56 = load i32, ptr %7, align 4
  %57 = add i32 %56, 1
  store i32 %57, ptr %7, align 4
  %58 = load ptr, ptr %9, align 8
  %59 = load i32, ptr @hf_ac_if_clksrc_clocksource, align 4
  %60 = load ptr, ptr %6, align 8
  %61 = load i32, ptr %7, align 4
  %62 = call ptr @proto_tree_add_item(ptr noundef %58, i32 noundef %59, ptr noundef %60, i32 noundef %61, i32 noundef 1, i32 noundef -2147483648)
  %63 = load i32, ptr %7, align 4
  %64 = add i32 %63, 1
  store i32 %64, ptr %7, align 4
  %65 = load i32, ptr %7, align 4
  %66 = load i32, ptr %11, align 4
  %67 = sub i32 %65, %66
  call void @llvm.lifetime.end.p0(i64 4, ptr %11) #11
  ret i32 %67
}