; Function Attrs: null_pointer_is_valid sspstrong uwtable
define internal fastcc void @dissect_ac_if_clock_source(ptr noundef %0, i16 %.80.val.57.val, ptr noundef %1, ptr noundef readonly captures(none) %2) unnamed_addr #1 {
  %4 = and i16 %.80.val.57.val, 8
  %.not = icmp eq i16 %4, 0
  br i1 %.not, label %5, label %set_entity_type.exit

5:                                                ; preds = %3
  %6 = tail call zeroext i8 @tvb_get_uint8(ptr noundef %0, i32 noundef 3)
  %7 = getelementptr inbounds nuw i8, ptr %2, i64 40
  %8 = load ptr, ptr %7, align 8
  %9 = getelementptr inbounds nuw i8, ptr %8, i64 32
  %10 = load ptr, ptr %9, align 8
  %.not.i = icmp eq ptr %10, null
  br i1 %.not.i, label %11, label %18

11:                                               ; preds = %5
  %12 = tail call ptr @wmem_file_scope()
  %13 = tail call noalias noundef dereferenceable_or_null(1024) ptr @wmem_alloc(ptr noundef %12, i64 noundef 1024) #10
  store i32 1, ptr %13, align 4
  %scevgep.i.i = getelementptr nuw i8, ptr %13, i64 4
  tail call void @llvm.memset.p0.i64(ptr noundef nonnull align 4 dereferenceable(1020) %scevgep.i.i, i8 0, i64 1020, i1 false)
  %14 = load ptr, ptr %7, align 8
  %15 = getelementptr inbounds nuw i8, ptr %14, i64 32
  store ptr %13, ptr %15, align 8
  %16 = load ptr, ptr %7, align 8
  %17 = getelementptr inbounds nuw i8, ptr %16, i64 40
  store i32 2, ptr %17, align 8
  br label %21

18:                                               ; preds = %5
  %19 = getelementptr inbounds nuw i8, ptr %8, i64 40
  %20 = load i32, ptr %19, align 8
  %.not10.i = icmp eq i32 %20, 2
  br i1 %.not10.i, label %21, label %set_entity_type.exit

21:                                               ; preds = %18, %11
  %.0.i = phi ptr [ %10, %18 ], [ %13, %11 ]
  %.not11.i = icmp eq i8 %6, 0
  br i1 %.not11.i, label %set_entity_type.exit, label %22

22:                                               ; preds = %21
  %23 = zext i8 %6 to i64
  %24 = getelementptr [256 x i32], ptr %.0.i, i64 0, i64 %23
  store i32 2, ptr %24, align 4
  br label %set_entity_type.exit

set_entity_type.exit:                             ; preds = %22, %21, %18, %3
  %25 = load i32, ptr @hf_ac_if_clksrc_id, align 4
  %26 = tail call ptr @proto_tree_add_item(ptr noundef %1, i32 noundef %25, ptr noundef %0, i32 noundef 3, i32 noundef 1, i32 noundef -2147483648)
  %27 = load i32, ptr @hf_ac_if_clksrc_attr, align 4
  %28 = load i32, ptr @ett_ac_if_clksrc_attr, align 4
  %29 = tail call ptr @proto_tree_add_bitmask(ptr noundef %1, ptr noundef %0, i32 noundef 4, i32 noundef %27, i32 noundef %28, ptr noundef nonnull @dissect_ac_if_clock_source.cs_attributes, i32 noundef -2147483648)
  %30 = load i32, ptr @hf_ac_if_clksrc_controls, align 4
  %31 = load i32, ptr @ett_ac_if_clksrc_controls, align 4
  %32 = tail call ptr @proto_tree_add_bitmask(ptr noundef %1, ptr noundef %0, i32 noundef 5, i32 noundef %30, i32 noundef %31, ptr noundef nonnull @dissect_ac_if_clock_source.cs_controls, i32 noundef -2147483648)
  %33 = load i32, ptr @hf_ac_if_clksrc_assocterminal, align 4
  %34 = tail call ptr @proto_tree_add_item(ptr noundef %1, i32 noundef %33, ptr noundef %0, i32 noundef 6, i32 noundef 1, i32 noundef -2147483648)
  %35 = load i32, ptr @hf_ac_if_clksrc_clocksource, align 4
  %36 = tail call ptr @proto_tree_add_item(ptr noundef %1, i32 noundef %35, ptr noundef %0, i32 noundef 7, i32 noundef 1, i32 noundef -2147483648)
  ret void
}